; Function Attrs: mustprogress uwtable
define noundef zeroext i1 @_ZNK2cv3dnn14dnn4_v202412235Layer15getMemoryShapesERKSt6vectorIS3_IiSaIiEESaIS5_EEiRS7_SA_(ptr nonnull readnone align 8 captures(none) %0, ptr noundef nonnull readonly align 8 captures(none) dereferenceable(24) %1, i32 noundef %2, ptr noundef nonnull align 8 dereferenceable(24) %3, ptr nonnull readnone align 8 captures(none) %4) unnamed_addr #3 align 2 personality ptr @__gxx_personality_v0 {
  %6 = alloca %"class.std::__cxx11::basic_string", align 8
  %7 = alloca %"class.std::allocator.0", align 1
  %8 = getelementptr inbounds nuw i8, ptr %1, i64 8
  %9 = load ptr, ptr %8, align 8, !tbaa !119
  %10 = load ptr, ptr %1, align 8, !tbaa !122
  %.not = icmp eq ptr %9, %10
  br i1 %.not, label %11, label %21

11:                                               ; preds = %5
  call void @llvm.lifetime.start.p0(i64 32, ptr nonnull %6) #23
  call void @llvm.lifetime.start.p0(i64 1, ptr nonnull %7) #23
  call void @_ZNSt7__cxx1112basic_stringIcSt11char_traitsIcESaIcEEC2EPKcRKS3_(ptr noundef nonnull align 8 dereferenceable(32) %6, ptr noundef nonnull @.str.16, ptr noundef nonnull align 1 dereferenceable(1) %7)
  invoke void @_ZN2cv5errorEiRKNSt7__cxx1112basic_stringIcSt11char_traitsIcESaIcEEEPKcS9_i(i32 noundef -215, ptr noundef nonnull align 8 dereferenceable(32) %6, ptr noundef nonnull @__func__._ZNK2cv3dnn14dnn4_v202412235Layer15getMemoryShapesERKSt6vectorIS3_IiSaIiEESaIS5_EEiRS7_SA_, ptr noundef nonnull @.str.2, i32 noundef 255) #25
          to label %12 unwind label %13

12:                                               ; preds = %11
  unreachable

13:                                               ; preds = %11
  %14 = landingpad { ptr, i32 }
          cleanup
  %15 = load ptr, ptr %6, align 8, !tbaa !24
  %16 = getelementptr inbounds nuw i8, ptr %6, i64 16
  %17 = icmp eq ptr %15, %16
  br i1 %17, label %_ZNKSt7__cxx1112basic_stringIcSt11char_traitsIcESaIcEE11_M_is_localEv.exit.thread.i.i, label %_ZNKSt7__cxx1112basic_stringIcSt11char_traitsIcESaIcEE11_M_is_localEv.exit.i.i

_ZNKSt7__cxx1112basic_stringIcSt11char_traitsIcESaIcEE11_M_is_localEv.exit.thread.i.i: ; preds = %13
  %18 = getelementptr inbounds nuw i8, ptr %6, i64 8
  %19 = load i64, ptr %18, align 8, !tbaa !11
  %20 = icmp ult i64 %19, 16
  call void @llvm.assume(i1 %20)
  br label %_ZNSt7__cxx1112basic_stringIcSt11char_traitsIcESaIcEED2Ev.exit

_ZNKSt7__cxx1112basic_stringIcSt11char_traitsIcESaIcEE11_M_is_localEv.exit.i.i: ; preds = %13
  call void @_ZdlPv(ptr noundef %15) #24
  br label %_ZNSt7__cxx1112basic_stringIcSt11char_traitsIcESaIcEED2Ev.exit

_ZNSt7__cxx1112basic_stringIcSt11char_traitsIcESaIcEED2Ev.exit: ; preds = %_ZNKSt7__cxx1112basic_stringIcSt11char_traitsIcESaIcEE11_M_is_localEv.exit.i.i, %_ZNKSt7__cxx1112basic_stringIcSt11char_traitsIcESaIcEE11_M_is_localEv.exit.thread.i.i
  call void @llvm.lifetime.end.p0(i64 1, ptr nonnull %7) #23
  call void @llvm.lifetime.end.p0(i64 32, ptr nonnull %6) #23
  resume { ptr, i32 } %14

21:                                               ; preds = %5
  %22 = ptrtoint ptr %9 to i64
  %23 = ptrtoint ptr %10 to i64
  %24 = sub i64 %22, %23
  %25 = sdiv exact i64 %24, 24
  %26 = trunc i64 %25 to i32
  %.sroa.speculated = tail call i32 @llvm.smax.i32(i32 %2, i32 %26)
  %27 = sext i32 %.sroa.speculated to i64
  tail call void @_ZNSt6vectorIS_IiSaIiEESaIS1_EE14_M_fill_assignEmRKS1_(ptr noundef nonnull align 8 dereferenceable(24) %3, i64 noundef %27, ptr noundef nonnull align 8 dereferenceable(24) %10)
  ret i1 false
}